; Function Attrs: mustprogress nofree norecurse nosync nounwind willreturn memory(read, inaccessiblemem: none) uwtable
define i32 @Gli_ObjNumGlitches(ptr noundef readonly captures(none) %0, i32 noundef %1) local_unnamed_addr #10 {
  %3 = getelementptr i8, ptr %0, i64 64
  %.val = load ptr, ptr %3, align 8, !tbaa !21
  %4 = sext i32 %1 to i64
  %5 = getelementptr inbounds i32, ptr %.val, i64 %4
  %6 = getelementptr inbounds nuw i8, ptr %5, i64 24
  %7 = load i32, ptr %6, align 8, !tbaa !31
  ret i32 %7
}